target datalayout = "e-m:e-p270:32:32-p271:32:32-p272:64:64-i64:64-i128:128-f80:128-n8:16:32:64-S128"
target triple = "x86_64-unknown-linux-gnu"

%"class.icu_75::BucketList" = type { %"class.icu_75::UObject", ptr, ptr }
%"class.icu_75::UObject" = type { ptr }
%"class.icu_75::AlphabeticIndex::ImmutableIndex" = type { %"class.icu_75::UObject", ptr, ptr }
%"class.icu_75::UVector" = type { %"class.icu_75::UObject", i32, i32, ptr, ptr, ptr }

; Function Attrs: mustprogress uwtable
define linkonce_odr noundef ptr @_ZNK6icu_757UVectorixEi(ptr noundef nonnull align 8 dereferenceable(40) %this, i32 noundef %index) #2 comdat align 2 {
entry:
  %this.addr = alloca ptr, align 8
  %index.addr = alloca i32, align 4
  store ptr %this, ptr %this.addr, align 8
  store i32 %index, ptr %index.addr, align 4
  %this1 = load ptr, ptr %this.addr, align 8
  %0 = load i32, ptr %index.addr, align 4
  %call = call noundef ptr @_ZNK6icu_757UVector9elementAtEi(ptr noundef nonnull align 8 dereferenceable(40) %this1, i32 noundef %0)
  ret ptr %call
}

; Function Attrs: mustprogress nounwind uwtable
define linkonce_odr noundef i32 @_ZNK6icu_757UVector4sizeEv(ptr noundef nonnull align 8 dereferenceable(40) %this) #0 comdat align 2 {
entry:
  %this.addr = alloca ptr, align 8
  store ptr %this, ptr %this.addr, align 8
  %this1 = load ptr, ptr %this.addr, align 8
  %count = getelementptr inbounds %"class.icu_75::UVector", ptr %this1, i32 0, i32 1
  %0 = load i32, ptr %count, align 8
  ret i32 %0
}

; Function Attrs: mustprogress uwtable
define internal noundef ptr @_ZN6icu_7512_GLOBAL__N_19getBucketERKNS_7UVectorEi(ptr noundef nonnull align 8 dereferenceable(40) %list, i32 noundef %i) #2 {
entry:
  %list.addr = alloca ptr, align 8
  %i.addr = alloca i32, align 4
  store ptr %list, ptr %list.addr, align 8
  store i32 %i, ptr %i.addr, align 4
  %0 = load ptr, ptr %list.addr, align 8
  %1 = load i32, ptr %i.addr, align 4
  %call = call noundef ptr @_ZNK6icu_757UVectorixEi(ptr noundef nonnull align 8 dereferenceable(40) %0, i32 noundef %1)
  ret ptr %call
}

; Function Attrs: mustprogress uwtable
define linkonce_odr noundef i32 @_ZNK6icu_7510BucketList14getBucketCountEv(ptr noundef nonnull align 8 dereferenceable(24) %this) #2 comdat align 2 {
entry:
  %this.addr = alloca ptr, align 8
  store ptr %this, ptr %this.addr, align 8
  %this1 = load ptr, ptr %this.addr, align 8
  %immutableVisibleList_ = getelementptr inbounds %"class.icu_75::BucketList", ptr %this1, i32 0, i32 2
  %0 = load ptr, ptr %immutableVisibleList_, align 8
  %call = call noundef i32 @_ZNK6icu_757UVector4sizeEv(ptr noundef nonnull align 8 dereferenceable(40) %0)
  ret i32 %call
}

; Function Attrs: mustprogress uwtable
define noundef ptr @_ZNK6icu_7515AlphabeticIndex14ImmutableIndex9getBucketEi(ptr noundef nonnull align 8 dereferenceable(24) %this, i32 noundef %index) #2 align 2 {
entry:
  %retval = alloca ptr, align 8
  %this.addr = alloca ptr, align 8
  %index.addr = alloca i32, align 4
  store ptr %this, ptr %this.addr, align 8
  store i32 %index, ptr %index.addr, align 4
  %this1 = load ptr, ptr %this.addr, align 8
  %0 = load i32, ptr %index.addr, align 4
  %cmp = icmp sle i32 0, %0
  br i1 %cmp, label %land.lhs.true, label %if.else

land.lhs.true:                                    ; preds = %entry
  %1 = load i32, ptr %index.addr, align 4
  %buckets_ = getelementptr inbounds %"class.icu_75::AlphabeticIndex::ImmutableIndex", ptr %this1, i32 0, i32 1
  %2 = load ptr, ptr %buckets_, align 8
  %call = call noundef i32 @_ZNK6icu_7510BucketList14getBucketCountEv(ptr noundef nonnull align 8 dereferenceable(24) %2)
  %cmp2 = icmp slt i32 %1, %call
  br i1 %cmp2, label %if.then, label %if.else

if.then:                                          ; preds = %land.lhs.true
  %buckets_3 = getelementptr inbounds %"class.icu_75::AlphabeticIndex::ImmutableIndex", ptr %this1, i32 0, i32 1
  %3 = load ptr, ptr %buckets_3, align 8
  %immutableVisibleList_ = getelementptr inbounds %"class.icu_75::BucketList", ptr %3, i32 0, i32 2
  %4 = load ptr, ptr %immutableVisibleList_, align 8
  %5 = load i32, ptr %index.addr, align 4
  %call4 = call noundef ptr @_ZN6icu_7512_GLOBAL__N_19getBucketERKNS_7UVectorEi(ptr noundef nonnull align 8 dereferenceable(40) %4, i32 noundef %5)
  store ptr %call4, ptr %retval, align 8
  br label %return

if.else:                                          ; preds = %land.lhs.true, %entry
  store ptr null, ptr %retval, align 8
  br label %return

return:                                           ; preds = %if.else, %if.then
  %6 = load ptr, ptr %retval, align 8
  ret ptr %6
}