; Function Attrs: mustprogress uwtable
define noundef ptr @_ZNK6icu_7515AlphabeticIndex14ImmutableIndex9getBucketEi(ptr nocapture noundef nonnull readonly align 8 dereferenceable(24) %this, i32 noundef %index) local_unnamed_addr #3 align 2 {
entry:
  %cmp = icmp sgt i32 %index, -1
  br i1 %cmp, label %land.lhs.true, label %return

land.lhs.true:                                    ; preds = %entry
  %buckets_ = getelementptr inbounds i8, ptr %this, i64 8
  %0 = load ptr, ptr %buckets_, align 8
  %immutableVisibleList_.i = getelementptr inbounds i8, ptr %0, i64 16
  %1 = load ptr, ptr %immutableVisibleList_.i, align 8
  %count.i.i = getelementptr inbounds i8, ptr %1, i64 8
  %2 = load i32, ptr %count.i.i, align 8
  %cmp2 = icmp sgt i32 %2, %index
  br i1 %cmp2, label %if.then, label %return

if.then:                                          ; preds = %land.lhs.true
  %call.i.i = tail call noundef ptr @_ZNK6icu_757UVector9elementAtEi(ptr noundef nonnull align 8 dereferenceable(40) %1, i32 noundef %index)
  br label %return

return:                                           ; preds = %entry, %land.lhs.true, %if.then
  %retval.0 = phi ptr [ %call.i.i, %if.then ], [ null, %land.lhs.true ], [ null, %entry ]
  ret ptr %retval.0
}